target datalayout = "e-m:e-p270:32:32-p271:32:32-p272:64:64-i64:64-i128:128-f80:128-n8:16:32:64-S128"
target triple = "x86_64-pc-linux-gnu"

; Function Attrs: nounwind uwtable
define void @stbiw__jpg_DCT(ptr noundef %0, ptr noundef %1, ptr noundef %2, ptr noundef %3, ptr noundef %4, ptr noundef %5, ptr noundef %6, ptr noundef %7) #0 {
  %9 = alloca ptr, align 8
  %10 = alloca ptr, align 8
  %11 = alloca ptr, align 8
  %12 = alloca ptr, align 8
  %13 = alloca ptr, align 8
  %14 = alloca ptr, align 8
  %15 = alloca ptr, align 8
  %16 = alloca ptr, align 8
  %17 = alloca float, align 4
  %18 = alloca float, align 4
  %19 = alloca float, align 4
  %20 = alloca float, align 4
  %21 = alloca float, align 4
  %22 = alloca float, align 4
  %23 = alloca float, align 4
  %24 = alloca float, align 4
  %25 = alloca float, align 4
  %26 = alloca float, align 4
  %27 = alloca float, align 4
  %28 = alloca float, align 4
  %29 = alloca float, align 4
  %30 = alloca float, align 4
  %31 = alloca float, align 4
  %32 = alloca float, align 4
  %33 = alloca float, align 4
  %34 = alloca float, align 4
  %35 = alloca float, align 4
  %36 = alloca float, align 4
  %37 = alloca float, align 4
  %38 = alloca float, align 4
  %39 = alloca float, align 4
  %40 = alloca float, align 4
  %41 = alloca float, align 4
  %42 = alloca float, align 4
  %43 = alloca float, align 4
  store ptr %0, ptr %9, align 8, !tbaa !30
  store ptr %1, ptr %10, align 8, !tbaa !30
  store ptr %2, ptr %11, align 8, !tbaa !30
  store ptr %3, ptr %12, align 8, !tbaa !30
  store ptr %4, ptr %13, align 8, !tbaa !30
  store ptr %5, ptr %14, align 8, !tbaa !30
  store ptr %6, ptr %15, align 8, !tbaa !30
  store ptr %7, ptr %16, align 8, !tbaa !30
  call void @llvm.lifetime.start.p0(i64 4, ptr %17) #11
  %44 = load ptr, ptr %9, align 8, !tbaa !30
  %45 = load float, ptr %44, align 4, !tbaa !32
  store float %45, ptr %17, align 4, !tbaa !32
  call void @llvm.lifetime.start.p0(i64 4, ptr %18) #11
  %46 = load ptr, ptr %10, align 8, !tbaa !30
  %47 = load float, ptr %46, align 4, !tbaa !32
  store float %47, ptr %18, align 4, !tbaa !32
  call void @llvm.lifetime.start.p0(i64 4, ptr %19) #11
  %48 = load ptr, ptr %11, align 8, !tbaa !30
  %49 = load float, ptr %48, align 4, !tbaa !32
  store float %49, ptr %19, align 4, !tbaa !32
  call void @llvm.lifetime.start.p0(i64 4, ptr %20) #11
  %50 = load ptr, ptr %12, align 8, !tbaa !30
  %51 = load float, ptr %50, align 4, !tbaa !32
  store float %51, ptr %20, align 4, !tbaa !32
  call void @llvm.lifetime.start.p0(i64 4, ptr %21) #11
  %52 = load ptr, ptr %13, align 8, !tbaa !30
  %53 = load float, ptr %52, align 4, !tbaa !32
  store float %53, ptr %21, align 4, !tbaa !32
  call void @llvm.lifetime.start.p0(i64 4, ptr %22) #11
  %54 = load ptr, ptr %14, align 8, !tbaa !30
  %55 = load float, ptr %54, align 4, !tbaa !32
  store float %55, ptr %22, align 4, !tbaa !32
  call void @llvm.lifetime.start.p0(i64 4, ptr %23) #11
  %56 = load ptr, ptr %15, align 8, !tbaa !30
  %57 = load float, ptr %56, align 4, !tbaa !32
  store float %57, ptr %23, align 4, !tbaa !32
  call void @llvm.lifetime.start.p0(i64 4, ptr %24) #11
  %58 = load ptr, ptr %16, align 8, !tbaa !30
  %59 = load float, ptr %58, align 4, !tbaa !32
  store float %59, ptr %24, align 4, !tbaa !32
  call void @llvm.lifetime.start.p0(i64 4, ptr %25) #11
  call void @llvm.lifetime.start.p0(i64 4, ptr %26) #11
  call void @llvm.lifetime.start.p0(i64 4, ptr %27) #11
  call void @llvm.lifetime.start.p0(i64 4, ptr %28) #11
  call void @llvm.lifetime.start.p0(i64 4, ptr %29) #11
  call void @llvm.lifetime.start.p0(i64 4, ptr %30) #11
  call void @llvm.lifetime.start.p0(i64 4, ptr %31) #11
  call void @llvm.lifetime.start.p0(i64 4, ptr %32) #11
  %60 = load float, ptr %17, align 4, !tbaa !32
  %61 = load float, ptr %24, align 4, !tbaa !32
  %62 = fadd float %60, %61
  store float %62, ptr %32, align 4, !tbaa !32
  call void @llvm.lifetime.start.p0(i64 4, ptr %33) #11
  %63 = load float, ptr %17, align 4, !tbaa !32
  %64 = load float, ptr %24, align 4, !tbaa !32
  %65 = fsub float %63, %64
  store float %65, ptr %33, align 4, !tbaa !32
  call void @llvm.lifetime.start.p0(i64 4, ptr %34) #11
  %66 = load float, ptr %18, align 4, !tbaa !32
  %67 = load float, ptr %23, align 4, !tbaa !32
  %68 = fadd float %66, %67
  store float %68, ptr %34, align 4, !tbaa !32
  call void @llvm.lifetime.start.p0(i64 4, ptr %35) #11
  %69 = load float, ptr %18, align 4, !tbaa !32
  %70 = load float, ptr %23, align 4, !tbaa !32
  %71 = fsub float %69, %70
  store float %71, ptr %35, align 4, !tbaa !32
  call void @llvm.lifetime.start.p0(i64 4, ptr %36) #11
  %72 = load float, ptr %19, align 4, !tbaa !32
  %73 = load float, ptr %22, align 4, !tbaa !32
  %74 = fadd float %72, %73
  store float %74, ptr %36, align 4, !tbaa !32
  call void @llvm.lifetime.start.p0(i64 4, ptr %37) #11
  %75 = load float, ptr %19, align 4, !tbaa !32
  %76 = load float, ptr %22, align 4, !tbaa !32
  %77 = fsub float %75, %76
  store float %77, ptr %37, align 4, !tbaa !32
  call void @llvm.lifetime.start.p0(i64 4, ptr %38) #11
  %78 = load float, ptr %20, align 4, !tbaa !32
  %79 = load float, ptr %21, align 4, !tbaa !32
  %80 = fadd float %78, %79
  store float %80, ptr %38, align 4, !tbaa !32
  call void @llvm.lifetime.start.p0(i64 4, ptr %39) #11
  %81 = load float, ptr %20, align 4, !tbaa !32
  %82 = load float, ptr %21, align 4, !tbaa !32
  %83 = fsub float %81, %82
  store float %83, ptr %39, align 4, !tbaa !32
  call void @llvm.lifetime.start.p0(i64 4, ptr %40) #11
  %84 = load float, ptr %32, align 4, !tbaa !32
  %85 = load float, ptr %38, align 4, !tbaa !32
  %86 = fadd float %84, %85
  store float %86, ptr %40, align 4, !tbaa !32
  call void @llvm.lifetime.start.p0(i64 4, ptr %41) #11
  %87 = load float, ptr %32, align 4, !tbaa !32
  %88 = load float, ptr %38, align 4, !tbaa !32
  %89 = fsub float %87, %88
  store float %89, ptr %41, align 4, !tbaa !32
  call void @llvm.lifetime.start.p0(i64 4, ptr %42) #11
  %90 = load float, ptr %34, align 4, !tbaa !32
  %91 = load float, ptr %36, align 4, !tbaa !32
  %92 = fadd float %90, %91
  store float %92, ptr %42, align 4, !tbaa !32
  call void @llvm.lifetime.start.p0(i64 4, ptr %43) #11
  %93 = load float, ptr %34, align 4, !tbaa !32
  %94 = load float, ptr %36, align 4, !tbaa !32
  %95 = fsub float %93, %94
  store float %95, ptr %43, align 4, !tbaa !32
  %96 = load float, ptr %40, align 4, !tbaa !32
  %97 = load float, ptr %42, align 4, !tbaa !32
  %98 = fadd float %96, %97
  store float %98, ptr %17, align 4, !tbaa !32
  %99 = load float, ptr %40, align 4, !tbaa !32
  %100 = load float, ptr %42, align 4, !tbaa !32
  %101 = fsub float %99, %100
  store float %101, ptr %21, align 4, !tbaa !32
  %102 = load float, ptr %43, align 4, !tbaa !32
  %103 = load float, ptr %41, align 4, !tbaa !32
  %104 = fadd float %102, %103
  %105 = fmul float %104, 0x3FE6A09E60000000
  store float %105, ptr %25, align 4, !tbaa !32
  %106 = load float, ptr %41, align 4, !tbaa !32
  %107 = load float, ptr %25, align 4, !tbaa !32
  %108 = fadd float %106, %107
  store float %108, ptr %19, align 4, !tbaa !32
  %109 = load float, ptr %41, align 4, !tbaa !32
  %110 = load float, ptr %25, align 4, !tbaa !32
  %111 = fsub float %109, %110
  store float %111, ptr %23, align 4, !tbaa !32
  %112 = load float, ptr %39, align 4, !tbaa !32
  %113 = load float, ptr %37, align 4, !tbaa !32
  %114 = fadd float %112, %113
  store float %114, ptr %40, align 4, !tbaa !32
  %115 = load float, ptr %37, align 4, !tbaa !32
  %116 = load float, ptr %35, align 4, !tbaa !32
  %117 = fadd float %115, %116
  store float %117, ptr %42, align 4, !tbaa !32
  %118 = load float, ptr %35, align 4, !tbaa !32
  %119 = load float, ptr %33, align 4, !tbaa !32
  %120 = fadd float %118, %119
  store float %120, ptr %43, align 4, !tbaa !32
  %121 = load float, ptr %40, align 4, !tbaa !32
  %122 = load float, ptr %43, align 4, !tbaa !32
  %123 = fsub float %121, %122
  %124 = fmul float %123, 0x3FD87DE2A0000000
  store float %124, ptr %29, align 4, !tbaa !32
  %125 = load float, ptr %40, align 4, !tbaa !32
  %126 = load float, ptr %29, align 4, !tbaa !32
  %127 = call float @llvm.fmuladd.f32(float %125, float 0x3FE1517A80000000, float %126)
  store float %127, ptr %26, align 4, !tbaa !32
  %128 = load float, ptr %43, align 4, !tbaa !32
  %129 = load float, ptr %29, align 4, !tbaa !32
  %130 = call float @llvm.fmuladd.f32(float %128, float 0x3FF4E7AEA0000000, float %129)
  store float %130, ptr %28, align 4, !tbaa !32
  %131 = load float, ptr %42, align 4, !tbaa !32
  %132 = fmul float %131, 0x3FE6A09E60000000
  store float %132, ptr %27, align 4, !tbaa !32
  %133 = load float, ptr %33, align 4, !tbaa !32
  %134 = load float, ptr %27, align 4, !tbaa !32
  %135 = fadd float %133, %134
  store float %135, ptr %30, align 4, !tbaa !32
  %136 = load float, ptr %33, align 4, !tbaa !32
  %137 = load float, ptr %27, align 4, !tbaa !32
  %138 = fsub float %136, %137
  store float %138, ptr %31, align 4, !tbaa !32
  %139 = load float, ptr %31, align 4, !tbaa !32
  %140 = load float, ptr %26, align 4, !tbaa !32
  %141 = fadd float %139, %140
  %142 = load ptr, ptr %14, align 8, !tbaa !30
  store float %141, ptr %142, align 4, !tbaa !32
  %143 = load float, ptr %31, align 4, !tbaa !32
  %144 = load float, ptr %26, align 4, !tbaa !32
  %145 = fsub float %143, %144
  %146 = load ptr, ptr %12, align 8, !tbaa !30
  store float %145, ptr %146, align 4, !tbaa !32
  %147 = load float, ptr %30, align 4, !tbaa !32
  %148 = load float, ptr %28, align 4, !tbaa !32
  %149 = fadd float %147, %148
  %150 = load ptr, ptr %10, align 8, !tbaa !30
  store float %149, ptr %150, align 4, !tbaa !32
  %151 = load float, ptr %30, align 4, !tbaa !32
  %152 = load float, ptr %28, align 4, !tbaa !32
  %153 = fsub float %151, %152
  %154 = load ptr, ptr %16, align 8, !tbaa !30
  store float %153, ptr %154, align 4, !tbaa !32
  %155 = load float, ptr %17, align 4, !tbaa !32
  %156 = load ptr, ptr %9, align 8, !tbaa !30
  store float %155, ptr %156, align 4, !tbaa !32
  %157 = load float, ptr %19, align 4, !tbaa !32
  %158 = load ptr, ptr %11, align 8, !tbaa !30
  store float %157, ptr %158, align 4, !tbaa !32
  %159 = load float, ptr %21, align 4, !tbaa !32
  %160 = load ptr, ptr %13, align 8, !tbaa !30
  store float %159, ptr %160, align 4, !tbaa !32
  %161 = load float, ptr %23, align 4, !tbaa !32
  %162 = load ptr, ptr %15, align 8, !tbaa !30
  store float %161, ptr %162, align 4, !tbaa !32
  call void @llvm.lifetime.end.p0(i64 4, ptr %43) #11
  call void @llvm.lifetime.end.p0(i64 4, ptr %42) #11
  call void @llvm.lifetime.end.p0(i64 4, ptr %41) #11
  call void @llvm.lifetime.end.p0(i64 4, ptr %40) #11
  call void @llvm.lifetime.end.p0(i64 4, ptr %39) #11
  call void @llvm.lifetime.end.p0(i64 4, ptr %38) #11
  call void @llvm.lifetime.end.p0(i64 4, ptr %37) #11
  call void @llvm.lifetime.end.p0(i64 4, ptr %36) #11
  call void @llvm.lifetime.end.p0(i64 4, ptr %35) #11
  call void @llvm.lifetime.end.p0(i64 4, ptr %34) #11
  call void @llvm.lifetime.end.p0(i64 4, ptr %33) #11
  call void @llvm.lifetime.end.p0(i64 4, ptr %32) #11
  call void @llvm.lifetime.end.p0(i64 4, ptr %31) #11
  call void @llvm.lifetime.end.p0(i64 4, ptr %30) #11
  call void @llvm.lifetime.end.p0(i64 4, ptr %29) #11
  call void @llvm.lifetime.end.p0(i64 4, ptr %28) #11
  call void @llvm.lifetime.end.p0(i64 4, ptr %27) #11
  call void @llvm.lifetime.end.p0(i64 4, ptr %26) #11
  call void @llvm.lifetime.end.p0(i64 4, ptr %25) #11
  call void @llvm.lifetime.end.p0(i64 4, ptr %24) #11
  call void @llvm.lifetime.end.p0(i64 4, ptr %23) #11
  call void @llvm.lifetime.end.p0(i64 4, ptr %22) #11
  call void @llvm.lifetime.end.p0(i64 4, ptr %21) #11
  call void @llvm.lifetime.end.p0(i64 4, ptr %20) #11
  call void @llvm.lifetime.end.p0(i64 4, ptr %19) #11
  call void @llvm.lifetime.end.p0(i64 4, ptr %18) #11
  call void @llvm.lifetime.end.p0(i64 4, ptr %17) #11
  ret void
}