; Function Attrs: mustprogress nofree norecurse nosync nounwind willreturn memory(argmem: readwrite) uwtable
define void @stbiw__jpg_DCT(ptr noundef captures(none) %0, ptr noundef captures(none) %1, ptr noundef captures(none) %2, ptr noundef captures(none) %3, ptr noundef captures(none) %4, ptr noundef captures(none) %5, ptr noundef captures(none) %6, ptr noundef captures(none) %7) local_unnamed_addr #22 {
  %9 = load float, ptr %0, align 4, !tbaa !23
  %10 = load float, ptr %1, align 4, !tbaa !23
  %11 = load float, ptr %2, align 4, !tbaa !23
  %12 = load float, ptr %3, align 4, !tbaa !23
  %13 = load float, ptr %4, align 4, !tbaa !23
  %14 = load float, ptr %5, align 4, !tbaa !23
  %15 = load float, ptr %6, align 4, !tbaa !23
  %16 = load float, ptr %7, align 4, !tbaa !23
  %17 = fadd float %9, %16
  %18 = fsub float %9, %16
  %19 = fadd float %10, %15
  %20 = fsub float %10, %15
  %21 = fadd float %11, %14
  %22 = fsub float %11, %14
  %23 = fadd float %12, %13
  %24 = fsub float %12, %13
  %25 = fadd float %23, %17
  %26 = fsub float %17, %23
  %27 = fadd float %21, %19
  %28 = fsub float %19, %21
  %29 = fadd float %27, %25
  %30 = fsub float %25, %27
  %31 = fadd float %28, %26
  %32 = fmul float %31, 0x3FE6A09E60000000
  %33 = fadd float %26, %32
  %34 = fsub float %26, %32
  %35 = fadd float %24, %22
  %36 = fadd float %22, %20
  %37 = fadd float %20, %18
  %38 = fsub float %35, %37
  %39 = fmul float %38, 0x3FD87DE2A0000000
  %40 = tail call float @llvm.fmuladd.f32(float %35, float 0x3FE1517A80000000, float %39)
  %41 = tail call float @llvm.fmuladd.f32(float %37, float 0x3FF4E7AEA0000000, float %39)
  %42 = fmul float %36, 0x3FE6A09E60000000
  %43 = fadd float %18, %42
  %44 = fsub float %18, %42
  %45 = fadd float %44, %40
  store float %45, ptr %5, align 4, !tbaa !23
  %46 = fsub float %44, %40
  store float %46, ptr %3, align 4, !tbaa !23
  %47 = fadd float %43, %41
  store float %47, ptr %1, align 4, !tbaa !23
  %48 = fsub float %43, %41
  store float %48, ptr %7, align 4, !tbaa !23
  store float %29, ptr %0, align 4, !tbaa !23
  store float %33, ptr %2, align 4, !tbaa !23
  store float %30, ptr %4, align 4, !tbaa !23
  store float %34, ptr %6, align 4, !tbaa !23
  ret void
}